target datalayout = "e-m:e-p270:32:32-p271:32:32-p272:64:64-i64:64-i128:128-f80:128-n8:16:32:64-S128"
target triple = "x86_64-pc-linux-gnu"

%struct.mempool_s = type { i64, i64, i64, i64, i8, ptr, ptr, ptr, ptr, %struct.sq_queue_s, %struct.sq_queue_s, %struct.sq_queue_s, i64, i8, %struct.sem_s, %struct.mempool_procfs_entry_s }
%struct.sq_queue_s = type { ptr, ptr }
%struct.sem_s = type { i16, i8, %struct.dq_queue_s, ptr }
%struct.dq_queue_s = type { ptr, ptr }
%struct.mempool_procfs_entry_s = type { ptr, ptr }
%struct.sq_entry_s = type { ptr }

; Function Attrs: nounwind uwtable
define internal ptr @mempool_remove_queue(ptr noundef %0) #0 {
  %2 = alloca ptr, align 8
  %3 = alloca ptr, align 8
  %4 = alloca ptr, align 8
  store ptr %0, ptr %3, align 8
  %5 = load ptr, ptr %3, align 8
  %6 = getelementptr inbounds %struct.sq_queue_s, ptr %5, i32 0, i32 0
  %7 = load ptr, ptr %6, align 8
  %8 = icmp eq ptr %7, null
  br i1 %8, label %19, label %9

9:                                                ; preds = %1
  %10 = load ptr, ptr %3, align 8
  %11 = getelementptr inbounds %struct.sq_queue_s, ptr %10, i32 0, i32 0
  %12 = load ptr, ptr %11, align 8
  store ptr %12, ptr %4, align 8
  %13 = load ptr, ptr %4, align 8
  %14 = getelementptr inbounds %struct.sq_entry_s, ptr %13, i32 0, i32 0
  %15 = load ptr, ptr %14, align 8
  %16 = load ptr, ptr %3, align 8
  %17 = getelementptr inbounds %struct.sq_queue_s, ptr %16, i32 0, i32 0
  store ptr %15, ptr %17, align 8
  %18 = load ptr, ptr %4, align 8
  store ptr %18, ptr %2, align 8
  br label %20

19:                                               ; preds = %1
  store ptr null, ptr %2, align 8
  br label %20

20:                                               ; preds = %19, %9
  %21 = load ptr, ptr %2, align 8
  ret ptr %21
}

; Function Attrs: nounwind uwtable
define i32 @mempool_deinit(ptr noundef %0) #0 {
  %2 = alloca i32, align 4
  %3 = alloca ptr, align 8
  %4 = alloca i64, align 8
  %5 = alloca ptr, align 8
  %6 = alloca i64, align 8
  store ptr %0, ptr %3, align 8
  %7 = load ptr, ptr %3, align 8
  %8 = getelementptr inbounds %struct.mempool_s, ptr %7, i32 0, i32 0
  %9 = load i64, ptr %8, align 8
  store i64 %9, ptr %4, align 8
  store i64 0, ptr %6, align 8
  %10 = load ptr, ptr %3, align 8
  %11 = getelementptr inbounds %struct.mempool_s, ptr %10, i32 0, i32 12
  %12 = load i64, ptr %11, align 8
  %13 = icmp ne i64 %12, 0
  br i1 %13, label %14, label %15

14:                                               ; preds = %1
  store i32 -16, ptr %2, align 4
  br label %109

15:                                               ; preds = %1
  %16 = load ptr, ptr %3, align 8
  %17 = getelementptr inbounds %struct.mempool_s, ptr %16, i32 0, i32 1
  %18 = load i64, ptr %17, align 8
  %19 = load i64, ptr %4, align 8
  %20 = add i64 %19, 8
  %21 = icmp uge i64 %18, %20
  br i1 %21, label %22, label %29

22:                                               ; preds = %15
  %23 = load ptr, ptr %3, align 8
  %24 = getelementptr inbounds %struct.mempool_s, ptr %23, i32 0, i32 1
  %25 = load i64, ptr %24, align 8
  %26 = sub i64 %25, 8
  %27 = load i64, ptr %4, align 8
  %28 = udiv i64 %26, %27
  store i64 %28, ptr %6, align 8
  br label %29

29:                                               ; preds = %22, %15
  %30 = load i64, ptr %6, align 8
  %31 = icmp eq i64 %30, 0
  br i1 %31, label %32, label %47

32:                                               ; preds = %29
  %33 = load ptr, ptr %3, align 8
  %34 = getelementptr inbounds %struct.mempool_s, ptr %33, i32 0, i32 3
  %35 = load i64, ptr %34, align 8
  %36 = load i64, ptr %4, align 8
  %37 = add i64 %36, 8
  %38 = icmp uge i64 %35, %37
  br i1 %38, label %39, label %46

39:                                               ; preds = %32
  %40 = load ptr, ptr %3, align 8
  %41 = getelementptr inbounds %struct.mempool_s, ptr %40, i32 0, i32 3
  %42 = load i64, ptr %41, align 8
  %43 = sub i64 %42, 8
  %44 = load i64, ptr %4, align 8
  %45 = udiv i64 %43, %44
  store i64 %45, ptr %6, align 8
  br label %46

46:                                               ; preds = %39, %32
  br label %47

47:                                               ; preds = %46, %29
  %48 = load ptr, ptr %3, align 8
  %49 = getelementptr inbounds %struct.mempool_s, ptr %48, i32 0, i32 15
  call void @mempool_procfs_unregister(ptr noundef %49)
  br label %50

50:                                               ; preds = %80, %47
  %51 = load ptr, ptr %3, align 8
  %52 = getelementptr inbounds %struct.mempool_s, ptr %51, i32 0, i32 11
  %53 = call ptr @mempool_remove_queue(ptr noundef %52)
  store ptr %53, ptr %5, align 8
  %54 = icmp ne ptr %53, null
  br i1 %54, label %55, label %81

55:                                               ; preds = %50
  %56 = load ptr, ptr %5, align 8
  %57 = load i64, ptr %6, align 8
  %58 = load i64, ptr %4, align 8
  %59 = mul i64 %57, %58
  %60 = sub i64 0, %59
  %61 = getelementptr inbounds i8, ptr %56, i64 %60
  store ptr %61, ptr %5, align 8
  %62 = load ptr, ptr %3, align 8
  %63 = getelementptr inbounds %struct.mempool_s, ptr %62, i32 0, i32 7
  %64 = load ptr, ptr %63, align 8
  %65 = load ptr, ptr %3, align 8
  %66 = load ptr, ptr %5, align 8
  call void %64(ptr noundef %65, ptr noundef %66)
  %67 = load ptr, ptr %3, align 8
  %68 = getelementptr inbounds %struct.mempool_s, ptr %67, i32 0, i32 3
  %69 = load i64, ptr %68, align 8
  %70 = load i64, ptr %4, align 8
  %71 = add i64 %70, 8
  %72 = icmp uge i64 %69, %71
  br i1 %72, label %73, label %80

73:                                               ; preds = %55
  %74 = load ptr, ptr %3, align 8
  %75 = getelementptr inbounds %struct.mempool_s, ptr %74, i32 0, i32 3
  %76 = load i64, ptr %75, align 8
  %77 = sub i64 %76, 8
  %78 = load i64, ptr %4, align 8
  %79 = udiv i64 %77, %78
  store i64 %79, ptr %6, align 8
  br label %80

80:                                               ; preds = %73, %55
  br label %50, !llvm.loop !11

81:                                               ; preds = %50
  %82 = load ptr, ptr %3, align 8
  %83 = getelementptr inbounds %struct.mempool_s, ptr %82, i32 0, i32 8
  %84 = load ptr, ptr %83, align 8
  %85 = icmp ne ptr %84, null
  br i1 %85, label %86, label %94

86:                                               ; preds = %81
  %87 = load ptr, ptr %3, align 8
  %88 = getelementptr inbounds %struct.mempool_s, ptr %87, i32 0, i32 7
  %89 = load ptr, ptr %88, align 8
  %90 = load ptr, ptr %3, align 8
  %91 = load ptr, ptr %3, align 8
  %92 = getelementptr inbounds %struct.mempool_s, ptr %91, i32 0, i32 8
  %93 = load ptr, ptr %92, align 8
  call void %89(ptr noundef %90, ptr noundef %93)
  br label %94

94:                                               ; preds = %86, %81
  %95 = load ptr, ptr %3, align 8
  %96 = getelementptr inbounds %struct.mempool_s, ptr %95, i32 0, i32 4
  %97 = load i8, ptr %96, align 8
  %98 = trunc i8 %97 to i1
  br i1 %98, label %99, label %108

99:                                               ; preds = %94
  %100 = load ptr, ptr %3, align 8
  %101 = getelementptr inbounds %struct.mempool_s, ptr %100, i32 0, i32 3
  %102 = load i64, ptr %101, align 8
  %103 = icmp eq i64 %102, 0
  br i1 %103, label %104, label %108

104:                                              ; preds = %99
  %105 = load ptr, ptr %3, align 8
  %106 = getelementptr inbounds %struct.mempool_s, ptr %105, i32 0, i32 14
  %107 = call i32 @nxsem_destroy(ptr noundef %106)
  br label %108

108:                                              ; preds = %104, %99, %94
  store i32 0, ptr %2, align 4
  br label %109

109:                                              ; preds = %108, %14
  %110 = load i32, ptr %2, align 4
  ret i32 %110
}