; Function Attrs: nounwind uwtable
define range(i32 -16, 1) i32 @mempool_deinit(ptr noundef %0) local_unnamed_addr #0 {
  %2 = load i64, ptr %0, align 8
  %3 = getelementptr inbounds nuw i8, ptr %0, i64 120
  %4 = load i64, ptr %3, align 8
  %.not = icmp eq i64 %4, 0
  br i1 %.not, label %5, label %55

5:                                                ; preds = %1
  %6 = getelementptr inbounds nuw i8, ptr %0, i64 8
  %7 = load i64, ptr %6, align 8
  %8 = add i64 %2, 8
  %.not36 = icmp ult i64 %7, %8
  br i1 %.not36, label %.thread, label %9

9:                                                ; preds = %5
  %10 = add i64 %7, -8
  %11 = udiv i64 %10, %2
  %12 = icmp ugt i64 %2, %10
  br i1 %12, label %.thread, label %18

.thread:                                          ; preds = %5, %9
  %13 = getelementptr inbounds nuw i8, ptr %0, i64 24
  %14 = load i64, ptr %13, align 8
  %.not37 = icmp ult i64 %14, %8
  br i1 %.not37, label %18, label %15

15:                                               ; preds = %.thread
  %16 = add i64 %14, -8
  %17 = udiv i64 %16, %2
  br label %18

18:                                               ; preds = %.thread, %15, %9
  %.1 = phi i64 [ %17, %15 ], [ 0, %.thread ], [ %11, %9 ]
  %19 = getelementptr inbounds nuw i8, ptr %0, i64 168
  tail call void @mempool_procfs_unregister(ptr noundef nonnull %19) #4
  %20 = getelementptr inbounds nuw i8, ptr %0, i64 104
  %21 = load ptr, ptr %20, align 8
  %22 = icmp eq ptr %21, null
  br i1 %22, label %._crit_edge, label %.lr.ph

.lr.ph:                                           ; preds = %18
  %23 = getelementptr inbounds nuw i8, ptr %0, i64 56
  %24 = getelementptr inbounds nuw i8, ptr %0, i64 24
  br label %25

25:                                               ; preds = %.lr.ph, %36
  %26 = phi ptr [ %21, %.lr.ph ], [ %37, %36 ]
  %.242 = phi i64 [ %.1, %.lr.ph ], [ %.3, %36 ]
  %27 = load ptr, ptr %26, align 8
  store ptr %27, ptr %20, align 8
  %28 = mul i64 %2, %.242
  %29 = sub i64 0, %28
  %30 = getelementptr inbounds i8, ptr %26, i64 %29
  %31 = load ptr, ptr %23, align 8
  tail call void %31(ptr noundef nonnull %0, ptr noundef nonnull %30) #4
  %32 = load i64, ptr %24, align 8
  %.not40 = icmp ult i64 %32, %8
  br i1 %.not40, label %36, label %33

33:                                               ; preds = %25
  %34 = add i64 %32, -8
  %35 = udiv i64 %34, %2
  br label %36

36:                                               ; preds = %33, %25
  %.3 = phi i64 [ %35, %33 ], [ %.242, %25 ]
  %37 = load ptr, ptr %20, align 8
  %38 = icmp eq ptr %37, null
  br i1 %38, label %._crit_edge, label %25, !llvm.loop !14

._crit_edge:                                      ; preds = %36, %18
  %39 = getelementptr inbounds nuw i8, ptr %0, i64 64
  %40 = load ptr, ptr %39, align 8
  %.not39 = icmp eq ptr %40, null
  br i1 %.not39, label %44, label %41

41:                                               ; preds = %._crit_edge
  %42 = getelementptr inbounds nuw i8, ptr %0, i64 56
  %43 = load ptr, ptr %42, align 8
  tail call void %43(ptr noundef nonnull %0, ptr noundef nonnull %40) #4
  br label %44

44:                                               ; preds = %41, %._crit_edge
  %45 = getelementptr inbounds nuw i8, ptr %0, i64 32
  %46 = load i8, ptr %45, align 8
  %47 = trunc i8 %46 to i1
  br i1 %47, label %48, label %55

48:                                               ; preds = %44
  %49 = getelementptr inbounds nuw i8, ptr %0, i64 24
  %50 = load i64, ptr %49, align 8
  %51 = icmp eq i64 %50, 0
  br i1 %51, label %52, label %55

52:                                               ; preds = %48
  %53 = getelementptr inbounds nuw i8, ptr %0, i64 136
  %54 = tail call i32 @nxsem_destroy(ptr noundef nonnull %53) #4
  br label %55

55:                                               ; preds = %44, %48, %52, %1
  %.030 = phi i32 [ -16, %1 ], [ 0, %52 ], [ 0, %48 ], [ 0, %44 ]
  ret i32 %.030
}